target datalayout = "e-m:e-p270:32:32-p271:32:32-p272:64:64-i64:64-i128:128-f80:128-n8:16:32:64-S128"
target triple = "x86_64-unknown-linux-gnu"

%"class.std::__cxx11::basic_string" = type { %"struct.std::__cxx11::basic_string<char>::_Alloc_hider", i64, %union.anon }
%"struct.std::__cxx11::basic_string<char>::_Alloc_hider" = type { ptr }
%union.anon = type { i64, [8 x i8] }
%"class.re2::ToStringWalker" = type { %"class.re2::Regexp::Walker", ptr }
%"class.re2::Regexp::Walker" = type { ptr, %"class.std::stack", i8, i32 }
%"class.std::stack" = type { %"class.std::deque" }
%"class.std::deque" = type { %"class.std::_Deque_base" }
%"class.std::_Deque_base" = type { %"struct.std::_Deque_base<re2::WalkState<int>, std::allocator<re2::WalkState<int>>>::_Deque_impl" }
%"struct.std::_Deque_base<re2::WalkState<int>, std::allocator<re2::WalkState<int>>>::_Deque_impl" = type { %"struct.std::_Deque_base<re2::WalkState<int>, std::allocator<re2::WalkState<int>>>::_Deque_impl_data" }
%"struct.std::_Deque_base<re2::WalkState<int>, std::allocator<re2::WalkState<int>>>::_Deque_impl_data" = type { ptr, i64, %"struct.std::_Deque_iterator", %"struct.std::_Deque_iterator" }
%"struct.std::_Deque_iterator" = type { ptr, ptr, ptr, ptr }
%class.LogMessage = type { i8, %"class.std::__cxx11::basic_ostringstream" }
%"class.std::__cxx11::basic_ostringstream" = type { %"class.std::basic_ostream.base", %"class.std::__cxx11::basic_stringbuf", %"class.std::basic_ios" }
%"class.std::basic_ostream.base" = type { ptr }
%"class.std::__cxx11::basic_stringbuf" = type { %"class.std::basic_streambuf", i32, %"class.std::__cxx11::basic_string" }
%"class.std::basic_streambuf" = type { ptr, ptr, ptr, ptr, ptr, ptr, ptr, %"class.std::locale" }
%"class.std::locale" = type { ptr }
%"class.std::basic_ios" = type { %"class.std::ios_base", ptr, i8, i8, ptr, ptr, ptr, ptr }
%"class.std::ios_base" = type { ptr, i64, i64, i32, i32, i32, ptr, %"struct.std::ios_base::_Words", [8 x %"struct.std::ios_base::_Words"], i32, ptr, %"class.std::locale" }
%"struct.std::ios_base::_Words" = type { ptr, i64 }
%"class.re2::Regexp" = type { i8, i8, i16, i16, i16, %union.anon.3, ptr, %union.anon.4 }
%union.anon.3 = type { ptr }
%union.anon.4 = type { %struct.anon.5 }
%struct.anon.5 = type { i32, ptr }

@.str.1 = private unnamed_addr constant [4 x i8] c"(?:\00", align 1
@.str.2 = private unnamed_addr constant [2 x i8] c"(\00", align 1
@.str.3 = private unnamed_addr constant [101 x i8] c"generated/home/dtcxzyw/WorkSpace/Projects/compilers/llvm-opt-benchmark/bench/re2/re2/re2/tostring.cc\00", align 1
@.str.4 = private unnamed_addr constant [26 x i8] c"kRegexpCapture cap() == 0\00", align 1
@.str.5 = private unnamed_addr constant [4 x i8] c"?P<\00", align 1
@.str.6 = private unnamed_addr constant [2 x i8] c">\00", align 1
@.str.32 = private unnamed_addr constant [2 x i8] c":\00", align 1
@.str.33 = private unnamed_addr constant [3 x i8] c": \00", align 1

; Function Attrs: mustprogress nounwind uwtable
define linkonce_odr noundef ptr @_ZN3re26Regexp4nameB5cxx11Ev(ptr noundef nonnull align 8 dereferenceable(40) %this) #2 comdat align 2 {
entry:
  %this.addr = alloca ptr, align 8
  store ptr %this, ptr %this.addr, align 8
  %this1 = load ptr, ptr %this.addr, align 8
  %0 = getelementptr inbounds %"class.re2::Regexp", ptr %this1, i32 0, i32 7
  %name_ = getelementptr inbounds %struct.anon.5, ptr %0, i32 0, i32 1
  %1 = load ptr, ptr %name_, align 8
  ret ptr %1
}

; Function Attrs: mustprogress nounwind uwtable
define linkonce_odr noundef nonnull align 8 dereferenceable(8) ptr @_ZN10LogMessage6streamEv(ptr noundef nonnull align 8 dereferenceable(384) %this) #2 comdat align 2 {
entry:
  %this.addr = alloca ptr, align 8
  store ptr %this, ptr %this.addr, align 8
  %this1 = load ptr, ptr %this.addr, align 8
  %str_ = getelementptr inbounds %class.LogMessage, ptr %this1, i32 0, i32 1
  ret ptr %str_
}

; Function Attrs: mustprogress uwtable
define linkonce_odr void @_ZN10LogMessageC2EPKci(ptr noundef nonnull align 8 dereferenceable(384) %this, ptr noundef %file, i32 noundef %line) unnamed_addr #0 comdat align 2 personality ptr @__gxx_personality_v0 {
entry:
  %this.addr = alloca ptr, align 8
  %file.addr = alloca ptr, align 8
  %line.addr = alloca i32, align 4
  %exn.slot = alloca ptr, align 8
  %ehselector.slot = alloca i32, align 4
  store ptr %this, ptr %this.addr, align 8
  store ptr %file, ptr %file.addr, align 8
  store i32 %line, ptr %line.addr, align 4
  %this1 = load ptr, ptr %this.addr, align 8
  %flushed_ = getelementptr inbounds %class.LogMessage, ptr %this1, i32 0, i32 0
  store i8 0, ptr %flushed_, align 8
  %str_ = getelementptr inbounds %class.LogMessage, ptr %this1, i32 0, i32 1
  call void @_ZNSt7__cxx1119basic_ostringstreamIcSt11char_traitsIcESaIcEEC1Ev(ptr noundef nonnull align 8 dereferenceable(112) %str_)
  %call = invoke noundef nonnull align 8 dereferenceable(8) ptr @_ZN10LogMessage6streamEv(ptr noundef nonnull align 8 dereferenceable(384) %this1)
          to label %invoke.cont unwind label %lpad

invoke.cont:                                      ; preds = %entry
  %0 = load ptr, ptr %file.addr, align 8
  %call3 = invoke noundef nonnull align 8 dereferenceable(8) ptr @_ZStlsISt11char_traitsIcEERSt13basic_ostreamIcT_ES5_PKc(ptr noundef nonnull align 8 dereferenceable(8) %call, ptr noundef %0)
          to label %invoke.cont2 unwind label %lpad

invoke.cont2:                                     ; preds = %invoke.cont
  %call5 = invoke noundef nonnull align 8 dereferenceable(8) ptr @_ZStlsISt11char_traitsIcEERSt13basic_ostreamIcT_ES5_PKc(ptr noundef nonnull align 8 dereferenceable(8) %call3, ptr noundef @.str.32)
          to label %invoke.cont4 unwind label %lpad

invoke.cont4:                                     ; preds = %invoke.cont2
  %1 = load i32, ptr %line.addr, align 4
  %call7 = invoke noundef nonnull align 8 dereferenceable(8) ptr @_ZNSolsEi(ptr noundef nonnull align 8 dereferenceable(8) %call5, i32 noundef %1)
          to label %invoke.cont6 unwind label %lpad

invoke.cont6:                                     ; preds = %invoke.cont4
  %call9 = invoke noundef nonnull align 8 dereferenceable(8) ptr @_ZStlsISt11char_traitsIcEERSt13basic_ostreamIcT_ES5_PKc(ptr noundef nonnull align 8 dereferenceable(8) %call7, ptr noundef @.str.33)
          to label %invoke.cont8 unwind label %lpad

invoke.cont8:                                     ; preds = %invoke.cont6
  ret void

lpad:                                             ; preds = %invoke.cont6, %invoke.cont4, %invoke.cont2, %invoke.cont, %entry
  %2 = landingpad { ptr, i32 }
          cleanup
  %3 = extractvalue { ptr, i32 } %2, 0
  store ptr %3, ptr %exn.slot, align 8
  %4 = extractvalue { ptr, i32 } %2, 1
  store i32 %4, ptr %ehselector.slot, align 4
  call void @_ZNSt7__cxx1119basic_ostringstreamIcSt11char_traitsIcESaIcEED1Ev(ptr noundef nonnull align 8 dereferenceable(112) %str_) #13
  br label %eh.resume

eh.resume:                                        ; preds = %lpad
  %exn = load ptr, ptr %exn.slot, align 8
  %sel = load i32, ptr %ehselector.slot, align 4
  %lpad.val = insertvalue { ptr, i32 } poison, ptr %exn, 0
  %lpad.val10 = insertvalue { ptr, i32 } %lpad.val, i32 %sel, 1
  resume { ptr, i32 } %lpad.val10
}

; Function Attrs: mustprogress nounwind uwtable
define linkonce_odr noundef i32 @_ZN3re26Regexp3capEv(ptr noundef nonnull align 8 dereferenceable(40) %this) #2 comdat align 2 {
entry:
  %this.addr = alloca ptr, align 8
  store ptr %this, ptr %this.addr, align 8
  %this1 = load ptr, ptr %this.addr, align 8
  %0 = getelementptr inbounds %"class.re2::Regexp", ptr %this1, i32 0, i32 7
  %cap_ = getelementptr inbounds %struct.anon.5, ptr %0, i32 0, i32 0
  %1 = load i32, ptr %cap_, align 8
  ret i32 %1
}

; Function Attrs: mustprogress nounwind uwtable
define linkonce_odr noundef i32 @_ZN3re26Regexp2opEv(ptr noundef nonnull align 8 dereferenceable(40) %this) #2 comdat align 2 {
entry:
  %this.addr = alloca ptr, align 8
  store ptr %this, ptr %this.addr, align 8
  %this1 = load ptr, ptr %this.addr, align 8
  %op_ = getelementptr inbounds %"class.re2::Regexp", ptr %this1, i32 0, i32 0
  %0 = load i8, ptr %op_, align 8
  %conv = zext i8 %0 to i32
  ret i32 %conv
}

; Function Attrs: mustprogress uwtable
define noundef i32 @_ZN3re214ToStringWalker8PreVisitEPNS_6RegexpEiPb(ptr noundef nonnull align 8 dereferenceable(104) %this, ptr noundef %re, i32 noundef %parent_arg, ptr noundef %stop) unnamed_addr #0 align 2 personality ptr @__gxx_personality_v0 {
entry:
  %this.addr = alloca ptr, align 8
  %re.addr = alloca ptr, align 8
  %parent_arg.addr = alloca i32, align 4
  %stop.addr = alloca ptr, align 8
  %prec = alloca i32, align 4
  %nprec = alloca i32, align 4
  %ref.tmp = alloca %class.LogMessage, align 8
  %exn.slot = alloca ptr, align 8
  %ehselector.slot = alloca i32, align 4
  store ptr %this, ptr %this.addr, align 8
  store ptr %re, ptr %re.addr, align 8
  store i32 %parent_arg, ptr %parent_arg.addr, align 4
  store ptr %stop, ptr %stop.addr, align 8
  %this1 = load ptr, ptr %this.addr, align 8
  %0 = load i32, ptr %parent_arg.addr, align 4
  store i32 %0, ptr %prec, align 4
  store i32 0, ptr %nprec, align 4
  %1 = load ptr, ptr %re.addr, align 8
  %call = call noundef i32 @_ZN3re26Regexp2opEv(ptr noundef nonnull align 8 dereferenceable(40) %1)
  switch i32 %call, label %sw.epilog [
    i32 1, label %sw.bb
    i32 2, label %sw.bb
    i32 3, label %sw.bb
    i32 12, label %sw.bb
    i32 13, label %sw.bb
    i32 14, label %sw.bb
    i32 15, label %sw.bb
    i32 18, label %sw.bb
    i32 19, label %sw.bb
    i32 16, label %sw.bb
    i32 17, label %sw.bb
    i32 20, label %sw.bb
    i32 21, label %sw.bb
    i32 5, label %sw.bb2
    i32 4, label %sw.bb2
    i32 6, label %sw.bb4
    i32 11, label %sw.bb10
    i32 7, label %sw.bb30
    i32 8, label %sw.bb30
    i32 9, label %sw.bb30
    i32 10, label %sw.bb30
  ]

sw.bb:                                            ; preds = %entry, %entry, %entry, %entry, %entry, %entry, %entry, %entry, %entry, %entry, %entry, %entry, %entry
  store i32 0, ptr %nprec, align 4
  br label %sw.epilog

sw.bb2:                                           ; preds = %entry, %entry
  %2 = load i32, ptr %prec, align 4
  %cmp = icmp slt i32 %2, 2
  br i1 %cmp, label %if.then, label %if.end

if.then:                                          ; preds = %sw.bb2
  %t_ = getelementptr inbounds %"class.re2::ToStringWalker", ptr %this1, i32 0, i32 1
  %3 = load ptr, ptr %t_, align 8
  %call3 = call noundef nonnull align 8 dereferenceable(32) ptr @_ZNSt7__cxx1112basic_stringIcSt11char_traitsIcESaIcEE6appendEPKc(ptr noundef nonnull align 8 dereferenceable(32) %3, ptr noundef @.str.1)
  br label %if.end

if.end:                                           ; preds = %if.then, %sw.bb2
  store i32 2, ptr %nprec, align 4
  br label %sw.epilog

sw.bb4:                                           ; preds = %entry
  %4 = load i32, ptr %prec, align 4
  %cmp5 = icmp slt i32 %4, 3
  br i1 %cmp5, label %if.then6, label %if.end9

if.then6:                                         ; preds = %sw.bb4
  %t_7 = getelementptr inbounds %"class.re2::ToStringWalker", ptr %this1, i32 0, i32 1
  %5 = load ptr, ptr %t_7, align 8
  %call8 = call noundef nonnull align 8 dereferenceable(32) ptr @_ZNSt7__cxx1112basic_stringIcSt11char_traitsIcESaIcEE6appendEPKc(ptr noundef nonnull align 8 dereferenceable(32) %5, ptr noundef @.str.1)
  br label %if.end9

if.end9:                                          ; preds = %if.then6, %sw.bb4
  store i32 3, ptr %nprec, align 4
  br label %sw.epilog

sw.bb10:                                          ; preds = %entry
  %t_11 = getelementptr inbounds %"class.re2::ToStringWalker", ptr %this1, i32 0, i32 1
  %6 = load ptr, ptr %t_11, align 8
  %call12 = call noundef nonnull align 8 dereferenceable(32) ptr @_ZNSt7__cxx1112basic_stringIcSt11char_traitsIcESaIcEE6appendEPKc(ptr noundef nonnull align 8 dereferenceable(32) %6, ptr noundef @.str.2)
  %7 = load ptr, ptr %re.addr, align 8
  %call13 = call noundef i32 @_ZN3re26Regexp3capEv(ptr noundef nonnull align 8 dereferenceable(40) %7)
  %cmp14 = icmp eq i32 %call13, 0
  br i1 %cmp14, label %if.then15, label %if.end19

if.then15:                                        ; preds = %sw.bb10
  call void @_ZN10LogMessageC2EPKci(ptr noundef nonnull align 8 dereferenceable(384) %ref.tmp, ptr noundef @.str.3, i32 noundef 104)
  %call16 = invoke noundef nonnull align 8 dereferenceable(8) ptr @_ZN10LogMessage6streamEv(ptr noundef nonnull align 8 dereferenceable(384) %ref.tmp)
          to label %invoke.cont unwind label %lpad

invoke.cont:                                      ; preds = %if.then15
  %call18 = invoke noundef nonnull align 8 dereferenceable(8) ptr @_ZStlsISt11char_traitsIcEERSt13basic_ostreamIcT_ES5_PKc(ptr noundef nonnull align 8 dereferenceable(8) %call16, ptr noundef @.str.4)
          to label %invoke.cont17 unwind label %lpad

invoke.cont17:                                    ; preds = %invoke.cont
  call void @_ZN10LogMessageD2Ev(ptr noundef nonnull align 8 dereferenceable(384) %ref.tmp) #13
  br label %if.end19

lpad:                                             ; preds = %invoke.cont, %if.then15
  %8 = landingpad { ptr, i32 }
          cleanup
  %9 = extractvalue { ptr, i32 } %8, 0
  store ptr %9, ptr %exn.slot, align 8
  %10 = extractvalue { ptr, i32 } %8, 1
  store i32 %10, ptr %ehselector.slot, align 4
  call void @_ZN10LogMessageD2Ev(ptr noundef nonnull align 8 dereferenceable(384) %ref.tmp) #13
  br label %eh.resume

if.end19:                                         ; preds = %invoke.cont17, %sw.bb10
  %11 = load ptr, ptr %re.addr, align 8
  %call20 = call noundef ptr @_ZN3re26Regexp4nameB5cxx11Ev(ptr noundef nonnull align 8 dereferenceable(40) %11)
  %tobool = icmp ne ptr %call20, null
  br i1 %tobool, label %if.then21, label %if.end29

if.then21:                                        ; preds = %if.end19
  %t_22 = getelementptr inbounds %"class.re2::ToStringWalker", ptr %this1, i32 0, i32 1
  %12 = load ptr, ptr %t_22, align 8
  %call23 = call noundef nonnull align 8 dereferenceable(32) ptr @_ZNSt7__cxx1112basic_stringIcSt11char_traitsIcESaIcEE6appendEPKc(ptr noundef nonnull align 8 dereferenceable(32) %12, ptr noundef @.str.5)
  %t_24 = getelementptr inbounds %"class.re2::ToStringWalker", ptr %this1, i32 0, i32 1
  %13 = load ptr, ptr %t_24, align 8
  %14 = load ptr, ptr %re.addr, align 8
  %call25 = call noundef ptr @_ZN3re26Regexp4nameB5cxx11Ev(ptr noundef nonnull align 8 dereferenceable(40) %14)
  %call26 = call noundef nonnull align 8 dereferenceable(32) ptr @_ZNSt7__cxx1112basic_stringIcSt11char_traitsIcESaIcEE6appendERKS4_(ptr noundef nonnull align 8 dereferenceable(32) %13, ptr noundef nonnull align 8 dereferenceable(32) %call25)
  %t_27 = getelementptr inbounds %"class.re2::ToStringWalker", ptr %this1, i32 0, i32 1
  %15 = load ptr, ptr %t_27, align 8
  %call28 = call noundef nonnull align 8 dereferenceable(32) ptr @_ZNSt7__cxx1112basic_stringIcSt11char_traitsIcESaIcEE6appendEPKc(ptr noundef nonnull align 8 dereferenceable(32) %15, ptr noundef @.str.6)
  br label %if.end29

if.end29:                                         ; preds = %if.then21, %if.end19
  store i32 5, ptr %nprec, align 4
  br label %sw.epilog

sw.bb30:                                          ; preds = %entry, %entry, %entry, %entry
  %16 = load i32, ptr %prec, align 4
  %cmp31 = icmp slt i32 %16, 1
  br i1 %cmp31, label %if.then32, label %if.end35

if.then32:                                        ; preds = %sw.bb30
  %t_33 = getelementptr inbounds %"class.re2::ToStringWalker", ptr %this1, i32 0, i32 1
  %17 = load ptr, ptr %t_33, align 8
  %call34 = call noundef nonnull align 8 dereferenceable(32) ptr @_ZNSt7__cxx1112basic_stringIcSt11char_traitsIcESaIcEE6appendEPKc(ptr noundef nonnull align 8 dereferenceable(32) %17, ptr noundef @.str.1)
  br label %if.end35

if.end35:                                         ; preds = %if.then32, %sw.bb30
  store i32 0, ptr %nprec, align 4
  br label %sw.epilog

sw.epilog:                                        ; preds = %if.end35, %if.end29, %if.end9, %if.end, %sw.bb, %entry
  %18 = load i32, ptr %nprec, align 4
  ret i32 %18

eh.resume:                                        ; preds = %lpad
  %exn = load ptr, ptr %exn.slot, align 8
  %sel = load i32, ptr %ehselector.slot, align 4
  %lpad.val = insertvalue { ptr, i32 } poison, ptr %exn, 0
  %lpad.val36 = insertvalue { ptr, i32 } %lpad.val, i32 %sel, 1
  resume { ptr, i32 } %lpad.val36
}