; Function Attrs: mustprogress uwtable
define noundef i32 @_ZN3re214ToStringWalker8PreVisitEPNS_6RegexpEiPb(ptr nocapture noundef nonnull readonly align 8 dereferenceable(104) %this, ptr nocapture noundef readonly %re, i32 noundef %parent_arg, ptr nocapture readnone %stop) unnamed_addr #0 align 2 personality ptr @__gxx_personality_v0 {
entry:
  %ref.tmp = alloca %class.LogMessage, align 8
  %0 = load i8, ptr %re, align 8
  switch i8 %0, label %sw.epilog [
    i8 10, label %sw.bb30
    i8 9, label %sw.bb30
    i8 8, label %sw.bb30
    i8 7, label %sw.bb30
    i8 11, label %sw.bb10
    i8 6, label %sw.bb4
    i8 4, label %sw.bb2
    i8 5, label %sw.bb2
  ]

sw.bb2:                                           ; preds = %entry, %entry
  %cmp = icmp slt i32 %parent_arg, 2
  br i1 %cmp, label %if.then, label %sw.epilog

if.then:                                          ; preds = %sw.bb2
  %t_ = getelementptr inbounds i8, ptr %this, i64 96
  %1 = load ptr, ptr %t_, align 8
  %call3 = tail call noundef nonnull align 8 dereferenceable(32) ptr @_ZNSt7__cxx1112basic_stringIcSt11char_traitsIcESaIcEE6appendEPKc(ptr noundef nonnull align 8 dereferenceable(32) %1, ptr noundef nonnull @.str.1)
  br label %sw.epilog

sw.bb4:                                           ; preds = %entry
  %cmp5 = icmp slt i32 %parent_arg, 3
  br i1 %cmp5, label %if.then6, label %sw.epilog

if.then6:                                         ; preds = %sw.bb4
  %t_7 = getelementptr inbounds i8, ptr %this, i64 96
  %2 = load ptr, ptr %t_7, align 8
  %call8 = tail call noundef nonnull align 8 dereferenceable(32) ptr @_ZNSt7__cxx1112basic_stringIcSt11char_traitsIcESaIcEE6appendEPKc(ptr noundef nonnull align 8 dereferenceable(32) %2, ptr noundef nonnull @.str.1)
  br label %sw.epilog

sw.bb10:                                          ; preds = %entry
  %t_11 = getelementptr inbounds i8, ptr %this, i64 96
  %3 = load ptr, ptr %t_11, align 8
  %call12 = tail call noundef nonnull align 8 dereferenceable(32) ptr @_ZNSt7__cxx1112basic_stringIcSt11char_traitsIcESaIcEE6appendEPKc(ptr noundef nonnull align 8 dereferenceable(32) %3, ptr noundef nonnull @.str.2)
  %4 = getelementptr inbounds i8, ptr %re, i64 24
  %5 = load i32, ptr %4, align 8
  %cmp14 = icmp eq i32 %5, 0
  br i1 %cmp14, label %if.then15, label %if.end19

if.then15:                                        ; preds = %sw.bb10
  store i8 0, ptr %ref.tmp, align 8
  %str_.i = getelementptr inbounds i8, ptr %ref.tmp, i64 8
  call void @_ZNSt7__cxx1119basic_ostringstreamIcSt11char_traitsIcESaIcEEC1Ev(ptr noundef nonnull align 8 dereferenceable(112) %str_.i)
  %call3.i = invoke noundef nonnull align 8 dereferenceable(8) ptr @_ZStlsISt11char_traitsIcEERSt13basic_ostreamIcT_ES5_PKc(ptr noundef nonnull align 8 dereferenceable(8) %str_.i, ptr noundef nonnull @.str.3)
          to label %invoke.cont2.i unwind label %lpad.i

invoke.cont2.i:                                   ; preds = %if.then15
  %call5.i = invoke noundef nonnull align 8 dereferenceable(8) ptr @_ZStlsISt11char_traitsIcEERSt13basic_ostreamIcT_ES5_PKc(ptr noundef nonnull align 8 dereferenceable(8) %call3.i, ptr noundef nonnull @.str.32)
          to label %invoke.cont4.i unwind label %lpad.i

invoke.cont4.i:                                   ; preds = %invoke.cont2.i
  %call7.i = invoke noundef nonnull align 8 dereferenceable(8) ptr @_ZNSolsEi(ptr noundef nonnull align 8 dereferenceable(8) %call5.i, i32 noundef 104)
          to label %invoke.cont6.i unwind label %lpad.i

invoke.cont6.i:                                   ; preds = %invoke.cont4.i
  %call9.i = invoke noundef nonnull align 8 dereferenceable(8) ptr @_ZStlsISt11char_traitsIcEERSt13basic_ostreamIcT_ES5_PKc(ptr noundef nonnull align 8 dereferenceable(8) %call7.i, ptr noundef nonnull @.str.33)
          to label %_ZN10LogMessageC2EPKci.exit unwind label %lpad.i

common.resume:                                    ; preds = %lpad, %lpad.i
  %common.resume.op = phi { ptr, i32 } [ %6, %lpad.i ], [ %7, %lpad ]
  resume { ptr, i32 } %common.resume.op

lpad.i:                                           ; preds = %invoke.cont6.i, %invoke.cont4.i, %invoke.cont2.i, %if.then15
  %6 = landingpad { ptr, i32 }
          cleanup
  call void @_ZNSt7__cxx1119basic_ostringstreamIcSt11char_traitsIcESaIcEED1Ev(ptr noundef nonnull align 8 dereferenceable(112) %str_.i) #15
  br label %common.resume

_ZN10LogMessageC2EPKci.exit:                      ; preds = %invoke.cont6.i
  %call18 = invoke noundef nonnull align 8 dereferenceable(8) ptr @_ZStlsISt11char_traitsIcEERSt13basic_ostreamIcT_ES5_PKc(ptr noundef nonnull align 8 dereferenceable(8) %str_.i, ptr noundef nonnull @.str.4)
          to label %invoke.cont17 unwind label %lpad

invoke.cont17:                                    ; preds = %_ZN10LogMessageC2EPKci.exit
  call void @_ZN10LogMessageD2Ev(ptr noundef nonnull align 8 dereferenceable(384) %ref.tmp) #15
  br label %if.end19

lpad:                                             ; preds = %_ZN10LogMessageC2EPKci.exit
  %7 = landingpad { ptr, i32 }
          cleanup
  call void @_ZN10LogMessageD2Ev(ptr noundef nonnull align 8 dereferenceable(384) %ref.tmp) #15
  br label %common.resume

if.end19:                                         ; preds = %invoke.cont17, %sw.bb10
  %name_.i = getelementptr inbounds i8, ptr %re, i64 32
  %8 = load ptr, ptr %name_.i, align 8
  %tobool.not = icmp eq ptr %8, null
  br i1 %tobool.not, label %sw.epilog, label %if.then21

if.then21:                                        ; preds = %if.end19
  %9 = load ptr, ptr %t_11, align 8
  %call23 = call noundef nonnull align 8 dereferenceable(32) ptr @_ZNSt7__cxx1112basic_stringIcSt11char_traitsIcESaIcEE6appendEPKc(ptr noundef nonnull align 8 dereferenceable(32) %9, ptr noundef nonnull @.str.5)
  %10 = load ptr, ptr %t_11, align 8
  %11 = load ptr, ptr %name_.i, align 8
  %call26 = call noundef nonnull align 8 dereferenceable(32) ptr @_ZNSt7__cxx1112basic_stringIcSt11char_traitsIcESaIcEE6appendERKS4_(ptr noundef nonnull align 8 dereferenceable(32) %10, ptr noundef nonnull align 8 dereferenceable(32) %11)
  %12 = load ptr, ptr %t_11, align 8
  %call28 = call noundef nonnull align 8 dereferenceable(32) ptr @_ZNSt7__cxx1112basic_stringIcSt11char_traitsIcESaIcEE6appendEPKc(ptr noundef nonnull align 8 dereferenceable(32) %12, ptr noundef nonnull @.str.6)
  br label %sw.epilog

sw.bb30:                                          ; preds = %entry, %entry, %entry, %entry
  %cmp31 = icmp slt i32 %parent_arg, 1
  br i1 %cmp31, label %if.then32, label %sw.epilog

if.then32:                                        ; preds = %sw.bb30
  %t_33 = getelementptr inbounds i8, ptr %this, i64 96
  %13 = load ptr, ptr %t_33, align 8
  %call34 = tail call noundef nonnull align 8 dereferenceable(32) ptr @_ZNSt7__cxx1112basic_stringIcSt11char_traitsIcESaIcEE6appendEPKc(ptr noundef nonnull align 8 dereferenceable(32) %13, ptr noundef nonnull @.str.1)
  br label %sw.epilog

sw.epilog:                                        ; preds = %sw.bb30, %if.then32, %if.end19, %if.then21, %sw.bb4, %if.then6, %sw.bb2, %if.then, %entry
  %nprec.0 = phi i32 [ 0, %entry ], [ 2, %if.then ], [ 2, %sw.bb2 ], [ 3, %if.then6 ], [ 3, %sw.bb4 ], [ 5, %if.then21 ], [ 5, %if.end19 ], [ 0, %if.then32 ], [ 0, %sw.bb30 ]
  ret i32 %nprec.0
}